Certificate:
    Data:
        Version: 3 (0x2)
        Serial Number:
            36:c5:cc:71:4b:5f:88:fc:9a:d4:fb:cc:2f:c1:66:1e
    Signature Algorithm: sha256WithRSAEncryption
        Issuer: CN=rasvpn
        Validity
            Not Before: Mar 11 20:24:50 2020 GMT
            Not After : Feb 24 20:24:50 2023 GMT
        Subject: CN=client
        Subject Public Key Info:
            Public Key Algorithm: rsaEncryption
                Public-Key: (2048 bit)
                Modulus:
                    00:af:e4:d9:90:51:81:c9:25:5f:d4:fa:be:f2:23:
                    fe:d7:b8:f5:79:c0:0e:e8:a7:ab:7d:fb:c9:d9:c6:
                    2e:64:66:8b:2a:81:ec:ff:61:75:07:6a:8a:8a:b6:
                    8f:14:7b:b6:1b:e3:bb:68:ac:12:e0:db:30:bc:ce:
                    97:1b:c6:15:ff:98:bf:14:83:f8:1a:ae:08:41:02:
                    ee:81:8e:fe:d1:5d:00:71:4e:22:e1:0c:5f:62:09:
                    07:c1:f3:6c:fd:4f:9c:60:e3:df:75:96:35:25:7e:
                    ec:09:80:b5:e3:dd:e2:71:ee:2f:83:29:3e:50:34:
                    d0:0e:64:c8:24:7b:ba:e3:0f:56:b3:26:d1:ba:ed:
                    66:54:16:7c:37:51:3d:2b:43:91:e3:82:0a:e2:de:
                    74:c9:57:46:0f:3d:29:d4:66:65:f3:b6:9c:8f:5c:
                    92:0c:1c:0f:4b:7c:87:57:b4:7c:5c:7d:de:2c:16:
                    df:81:a7:05:68:52:6d:af:f4:b0:d7:9b:64:aa:3b:
                    7b:7b:f6:60:85:65:20:c0:3f:0f:c8:fb:c3:4a:7f:
                    5f:c0:70:18:3a:ce:34:1a:c6:d3:9d:48:cd:ac:ae:
                    41:a8:f1:f6:9a:d1:66:52:a1:7b:53:54:3f:66:df:
                    9a:01:99:13:7b:b5:9c:8b:11:eb:bd:42:9f:a4:44:
                    03:97
                Exponent: 65537 (0x10001)
        X509v3 extensions:
            X509v3 Basic Constraints: 
                CA:FALSE
            X509v3 Subject Key Identifier: 
                72:81:EE:49:1D:D4:FA:92:34:01:3B:97:A2:EB:10:2E:DC:12:00:EA
            X509v3 Authority Key Identifier: 
                keyid:36:05:7A:7C:CE:E5:EA:ED:21:D4:B2:3F:E6:10:0A:50:C6:EE:ED:3A
                DirName:/CN=rasvpn
                serial:9A:20:A4:4E:2B:52:03:CF

            X509v3 Extended Key Usage: 
                TLS Web Client Authentication
            X509v3 Key Usage: 
                Digital Signature
    Signature Algorithm: sha256WithRSAEncryption
         d6:d7:87:35:ef:45:99:e1:df:7e:4f:97:19:20:59:6d:09:2f:
         24:26:3b:eb:46:c8:10:7a:7a:08:4a:94:f4:d3:2c:c3:aa:4e:
         82:5a:21:9b:9b:5c:31:eb:d8:4f:10:54:e0:ee:6e:5b:cf:46:
         fc:3c:58:5c:43:76:2d:9e:f4:f5:55:9f:68:39:0f:67:74:26:
         b9:63:12:68:22:23:62:7c:9a:57:df:d8:a7:43:14:bc:32:91:
         33:11:ab:5f:f5:a4:4c:4e:5c:ad:0b:41:06:cc:31:66:bc:d5:
         cb:27:98:60:9b:ae:3b:d3:6a:7f:bf:03:53:22:bd:9a:ea:1e:
         c4:03:a4:db:7f:12:db:0d:2f:e3:5d:a8:b1:b2:74:06:3d:4b:
         3e:dc:52:61:11:a0:35:ab:b7:41:29:43:40:57:73:c1:53:8d:
         26:95:a9:25:bf:48:79:fb:93:0d:d3:1a:34:8e:25:ae:eb:67:
         66:48:eb:bf:d7:b2:93:43:df:bd:41:ea:59:93:8b:38:72:a4:
         50:30:99:15:f4:ca:87:74:d5:6a:24:78:12:18:8f:6d:ee:37:
         dc:2a:0b:e8:9e:71:12:ca:c6:26:15:68:90:e2:2c:81:42:46:
         c5:10:e7:67:15:d0:be:50:f9:3f:40:8c:44:a3:82:ce:01:6f:
         11:47:db:56
-----BEGIN CERTIFICATE-----
MIIDPzCCAiegAwIBAgIQNsXMcUtfiPya1PvML8FmHjANBgkqhkiG9w0BAQsFADAR
MQ8wDQYDVQQDDAZyYXN2cG4wHhcNMjAwMzExMjAyNDUwWhcNMjMwMjI0MjAyNDUw
WjARMQ8wDQYDVQQDDAZjbGllbnQwggEiMA0GCSqGSIb3DQEBAQUAA4IBDwAwggEK
AoIBAQCv5NmQUYHJJV/U+r7yI/7XuPV5wA7op6t9+8nZxi5kZosqgez/YXUHaoqK
to8Ue7Yb47torBLg2zC8zpcbxhX/mL8Ug/garghBAu6Bjv7RXQBxTiLhDF9iCQfB
82z9T5xg4991ljUlfuwJgLXj3eJx7i+DKT5QNNAOZMgke7rjD1azJtG67WZUFnw3
UT0rQ5Hjggri3nTJV0YPPSnUZmXztpyPXJIMHA9LfIdXtHxcfd4sFt+BpwVoUm2v
9LDXm2SqO3t79mCFZSDAPw/I+8NKf1/AcBg6zjQaxtOdSM2srkGo8faa0WZSoXtT
VD9m35oBmRN7tZyLEeu9Qp+kRAOXAgMBAAGjgZIwgY8wCQYDVR0TBAIwADAdBgNV
HQ4EFgQUcoHuSR3U+pI0ATuXousQLtwSAOowQQYDVR0jBDowOIAUNgV6fM7l6u0h
1LI/5hAKUMbu7TqhFaQTMBExDzANBgNVBAMMBnJhc3ZwboIJAJogpE4rUgPPMBMG
A1UdJQQMMAoGCCsGAQUFBwMCMAsGA1UdDwQEAwIHgDANBgkqhkiG9w0BAQsFAAOC
AQEA1teHNe9FmeHffk+XGSBZbQkvJCY760bIEHp6CEqU9NMsw6pOglohm5tcMevY
TxBU4O5uW89G/DxYXEN2LZ709VWfaDkPZ3QmuWMSaCIjYnyaV9/Yp0MUvDKRMxGr
X/WkTE5crQtBBswxZrzVyyeYYJuuO9Nqf78DUyK9muoexAOk238S2w0v412osbJ0
Bj1LPtxSYRGgNau3QSlDQFdzwVONJpWpJb9IefuTDdMaNI4lrutnZkjrv9eyk0Pf
vUHqWZOLOHKkUDCZFfTKh3TVaiR4EhiPbe433CoL6J5xEsrGJhVokOIsgUJGxRDn
ZxXQvlD5P0CMRKOCzgFvEUfbVg==
-----END CERTIFICATE-----
