Certificate:
    Data:
        Version: 3 (0x2)
        Serial Number:
            7d:2d:9d:ff:a2:3b:31:af:5a:46:a5:be:a5:07:97:62
    Signature Algorithm: sha256WithRSAEncryption
        Issuer: CN=rasvpn
        Validity
            Not Before: Mar 15 11:30:16 2020 GMT
            Not After : Feb 28 11:30:16 2023 GMT
        Subject: CN=client
        Subject Public Key Info:
            Public Key Algorithm: rsaEncryption
                Public-Key: (2048 bit)
                Modulus:
                    00:bf:9e:33:7e:ea:61:0f:4f:ae:06:6c:39:15:d7:
                    f4:d5:17:00:b1:43:87:95:c6:42:02:63:76:2b:db:
                    7e:c8:5f:f0:0e:3c:ee:55:29:95:56:ee:14:96:e4:
                    14:2c:cb:7d:8f:8c:9e:db:9a:77:9b:13:81:b6:11:
                    36:2d:5a:45:54:fa:63:53:c0:43:de:f3:dd:aa:17:
                    12:f6:8a:18:67:c7:98:47:76:99:d1:bf:a5:90:7f:
                    05:07:92:f2:fa:0a:59:57:5e:34:4a:b1:2a:08:56:
                    fb:15:15:f5:15:cd:93:5f:65:84:1d:d5:d9:09:36:
                    f4:5b:03:87:1b:a5:cc:b1:c5:37:75:1c:cc:45:e8:
                    6b:19:10:79:ab:9d:91:4d:ba:2c:8a:b0:76:b8:db:
                    eb:60:c1:66:54:f8:97:63:45:5d:08:c4:9f:d8:e8:
                    5d:83:5b:03:25:25:16:0d:55:e0:fb:7d:3c:62:c5:
                    2f:97:17:9a:b4:7a:b2:fd:09:9d:df:67:ca:1a:e3:
                    64:c3:52:e5:34:94:f0:2b:c1:91:52:f8:aa:8e:f3:
                    62:4f:17:2e:5e:7b:b8:6e:92:bb:67:26:01:30:dd:
                    0b:a2:fa:3e:5a:8b:f5:2f:32:09:71:5a:e2:71:74:
                    e2:1b:fc:cb:c4:c2:84:f2:51:80:54:24:4c:1a:54:
                    d3:47
                Exponent: 65537 (0x10001)
        X509v3 extensions:
            X509v3 Basic Constraints: 
                CA:FALSE
            X509v3 Subject Key Identifier: 
                30:76:80:E8:63:5F:C9:B8:A8:0F:AA:76:6C:E7:14:50:49:FD:F2:C4
            X509v3 Authority Key Identifier: 
                keyid:B9:5B:FE:B0:A1:21:E4:2B:0F:76:A4:94:07:CB:C7:99:A0:62:51:31
                DirName:/CN=rasvpn
                serial:AB:7F:DE:77:7B:E8:B5:B7

            X509v3 Extended Key Usage: 
                TLS Web Client Authentication
            X509v3 Key Usage: 
                Digital Signature
    Signature Algorithm: sha256WithRSAEncryption
         5f:42:96:1f:92:48:28:b6:2c:c4:cc:e6:a3:0c:d4:05:47:bc:
         57:a9:5a:99:a9:43:f1:b6:e0:9a:fc:5f:72:95:82:c3:8d:00:
         f1:95:a7:52:c7:fe:5c:57:f3:03:9d:a2:5a:42:2f:67:bd:40:
         d8:39:64:9d:cb:af:b1:23:66:ab:9b:95:7e:21:32:dc:e2:ed:
         bd:07:05:d5:4b:dc:0e:f6:a2:00:02:d7:fa:d4:52:a8:fb:9d:
         ba:ed:a9:4a:65:80:96:d4:a3:a9:d4:61:fb:d3:ed:3f:b6:db:
         d6:fb:6d:0b:b2:69:22:64:69:57:47:05:c2:72:99:a2:59:fa:
         e6:af:d8:b1:ef:b5:1f:c5:81:40:6e:93:35:1e:a8:a0:00:8a:
         27:88:4b:51:58:54:50:30:6a:86:aa:09:25:4e:7f:92:33:e3:
         12:79:6f:43:c2:dc:23:da:ca:a3:76:d8:19:69:9f:d6:ee:6c:
         1a:de:d0:02:37:bc:7e:30:25:b2:79:6c:97:d3:0a:da:ac:da:
         1c:94:d8:ab:94:c6:f8:87:8d:8e:e3:b8:cd:c9:6e:2d:37:db:
         ee:ec:a3:43:8f:0d:06:5e:bd:ad:e9:ba:5a:65:43:4d:80:a3:
         6f:4f:57:2a:55:4c:f8:e0:ea:06:77:43:e4:70:6a:18:8a:4e:
         29:ae:77:64
-----BEGIN CERTIFICATE-----
MIIDPzCCAiegAwIBAgIQfS2d/6I7Ma9aRqW+pQeXYjANBgkqhkiG9w0BAQsFADAR
MQ8wDQYDVQQDDAZyYXN2cG4wHhcNMjAwMzE1MTEzMDE2WhcNMjMwMjI4MTEzMDE2
WjARMQ8wDQYDVQQDDAZjbGllbnQwggEiMA0GCSqGSIb3DQEBAQUAA4IBDwAwggEK
AoIBAQC/njN+6mEPT64GbDkV1/TVFwCxQ4eVxkICY3Yr237IX/AOPO5VKZVW7hSW
5BQsy32PjJ7bmnebE4G2ETYtWkVU+mNTwEPe892qFxL2ihhnx5hHdpnRv6WQfwUH
kvL6CllXXjRKsSoIVvsVFfUVzZNfZYQd1dkJNvRbA4cbpcyxxTd1HMxF6GsZEHmr
nZFNuiyKsHa42+tgwWZU+JdjRV0IxJ/Y6F2DWwMlJRYNVeD7fTxixS+XF5q0erL9
CZ3fZ8oa42TDUuU0lPArwZFS+KqO82JPFy5ee7hukrtnJgEw3Qui+j5ai/UvMglx
WuJxdOIb/MvEwoTyUYBUJEwaVNNHAgMBAAGjgZIwgY8wCQYDVR0TBAIwADAdBgNV
HQ4EFgQUMHaA6GNfybioD6p2bOcUUEn98sQwQQYDVR0jBDowOIAUuVv+sKEh5CsP
dqSUB8vHmaBiUTGhFaQTMBExDzANBgNVBAMMBnJhc3ZwboIJAKt/3nd76LW3MBMG
A1UdJQQMMAoGCCsGAQUFBwMCMAsGA1UdDwQEAwIHgDANBgkqhkiG9w0BAQsFAAOC
AQEAX0KWH5JIKLYsxMzmowzUBUe8V6lamalD8bbgmvxfcpWCw40A8ZWnUsf+XFfz
A52iWkIvZ71A2DlkncuvsSNmq5uVfiEy3OLtvQcF1UvcDvaiAALX+tRSqPuduu2p
SmWAltSjqdRh+9PtP7bb1vttC7JpImRpV0cFwnKZoln65q/Yse+1H8WBQG6TNR6o
oACKJ4hLUVhUUDBqhqoJJU5/kjPjEnlvQ8LcI9rKo3bYGWmf1u5sGt7QAje8fjAl
snlsl9MK2qzaHJTYq5TG+IeNjuO4zcluLTfb7uyjQ48NBl69rem6WmVDTYCjb09X
KlVM+ODqBndD5HBqGIpOKa53ZA==
-----END CERTIFICATE-----
